	.file	"test.c"
	.text
	.globl	printcha
	.type	printcha, @function
printcha:
.LFB0:
	.cfi_startproc
	pushl	%ebp
	.cfi_def_cfa_offset 8
	.cfi_offset 5, -8
	movl	%esp, %ebp
	.cfi_def_cfa_register 5
	movl	8(%ebp), %eax
	movb	$50, (%eax)
	nop
	popl	%ebp
	.cfi_restore 5
	.cfi_def_cfa 4, 4
	ret
	.cfi_endproc
.LFE0:
	.size	printcha, .-printcha
	.globl	printall
	.type	printall, @function
printall:
.LFB1:
	.cfi_startproc
	pushl	%ebp
	.cfi_def_cfa_offset 8
	.cfi_offset 5, -8
	movl	%esp, %ebp
	.cfi_def_cfa_register 5
	subl	$16, %esp
	movl	$0, -4(%ebp)
	movb	$49, -5(%ebp)
	leal	-5(%ebp), %eax
	movl	%eax, -4(%ebp)
	pushl	-4(%ebp)
	call	printcha
	addl	$4, %esp
	nop
	leave
	.cfi_restore 5
	.cfi_def_cfa 4, 4
	ret
	.cfi_endproc
.LFE1:
	.size	printall, .-printall
	.globl	getFunc
	.type	getFunc, @function
getFunc:
.LFB2:
	.cfi_startproc
	pushl	%ebp
	.cfi_def_cfa_offset 8
	.cfi_offset 5, -8
	movl	%esp, %ebp
	.cfi_def_cfa_register 5
	subl	$8, %esp
	movl	8(%ebp), %eax
	call	*%eax
	nop
	leave
	.cfi_restore 5
	.cfi_def_cfa 4, 4
	ret
	.cfi_endproc
.LFE2:
	.size	getFunc, .-getFunc
	.globl	hao
	.type	hao, @function
hao:
.LFB3:
	.cfi_startproc
	pushl	%ebp
	.cfi_def_cfa_offset 8
	.cfi_offset 5, -8
	movl	%esp, %ebp
	.cfi_def_cfa_register 5
	subl	$24, %esp
	movl	$printall, -12(%ebp)
	subl	$12, %esp
	pushl	-12(%ebp)
	call	getFunc
	addl	$16, %esp
	nop
	leave
	.cfi_restore 5
	.cfi_def_cfa 4, 4
	ret
	.cfi_endproc
.LFE3:
	.size	hao, .-hao
	.ident	"GCC: (GNU) 6.3.0"
